; Function Attrs: mustprogress nounwind uwtable
define dso_local i8 @_ZNK4llvm10DataLayout23getPointerPrefAlignmentEj(ptr noundef nonnull align 8 dereferenceable(512) %0, i32 noundef %1) local_unnamed_addr #0 align 2 {
  %.not.i = icmp eq i32 %1, 0
  br i1 %.not.i, label %21, label %3

3:                                                ; preds = %2
  %4 = getelementptr inbounds nuw i8, ptr %0, i64 272
  %5 = load ptr, ptr %4, align 8
  %6 = tail call noundef i64 @_ZNK4llvm15SmallVectorBaseIjE4sizeEv(ptr noundef nonnull align 8 dereferenceable(144) %4) #19
  %7 = icmp sgt i64 %6, 0
  br i1 %7, label %_ZSt7advanceIPKN4llvm10DataLayout11PointerSpecElEvRT_T0_.exit.i.i.i.i, label %_ZN4llvm11lower_boundIRKNS_11SmallVectorINS_10DataLayout11PointerSpecELj8EEERjN12_GLOBAL__N_120LessPointerAddrSpaceEEEDaOT_OT0_T1_.exit.i

_ZSt7advanceIPKN4llvm10DataLayout11PointerSpecElEvRT_T0_.exit.i.i.i.i: ; preds = %3, %_ZSt7advanceIPKN4llvm10DataLayout11PointerSpecElEvRT_T0_.exit.i.i.i.i
  %.05.i.i.i.i = phi ptr [ %.1.i.i.i.i, %_ZSt7advanceIPKN4llvm10DataLayout11PointerSpecElEvRT_T0_.exit.i.i.i.i ], [ %5, %3 ]
  %.0114.i.i.i.i = phi i64 [ %.112.i.i.i.i, %_ZSt7advanceIPKN4llvm10DataLayout11PointerSpecElEvRT_T0_.exit.i.i.i.i ], [ %6, %3 ]
  %8 = lshr i64 %.0114.i.i.i.i, 1
  %9 = getelementptr inbounds nuw %"struct.llvm::DataLayout::PointerSpec", ptr %.05.i.i.i.i, i64 %8
  %.val.i.i.i.i = load i32, ptr %9, align 4
  %10 = icmp ult i32 %.val.i.i.i.i, %1
  %11 = getelementptr inbounds nuw i8, ptr %9, i64 16
  %12 = xor i64 %8, -1
  %13 = add nsw i64 %.0114.i.i.i.i, %12
  %.112.i.i.i.i = select i1 %10, i64 %13, i64 %8
  %.1.i.i.i.i = select i1 %10, ptr %11, ptr %.05.i.i.i.i
  %14 = icmp sgt i64 %.112.i.i.i.i, 0
  br i1 %14, label %_ZSt7advanceIPKN4llvm10DataLayout11PointerSpecElEvRT_T0_.exit.i.i.i.i, label %_ZN4llvm11lower_boundIRKNS_11SmallVectorINS_10DataLayout11PointerSpecELj8EEERjN12_GLOBAL__N_120LessPointerAddrSpaceEEEDaOT_OT0_T1_.exit.i, !llvm.loop !259

_ZN4llvm11lower_boundIRKNS_11SmallVectorINS_10DataLayout11PointerSpecELj8EEERjN12_GLOBAL__N_120LessPointerAddrSpaceEEEDaOT_OT0_T1_.exit.i: ; preds = %_ZSt7advanceIPKN4llvm10DataLayout11PointerSpecElEvRT_T0_.exit.i.i.i.i, %3
  %.0.lcssa.i.i.i.i = phi ptr [ %5, %3 ], [ %.1.i.i.i.i, %_ZSt7advanceIPKN4llvm10DataLayout11PointerSpecElEvRT_T0_.exit.i.i.i.i ]
  %15 = load ptr, ptr %4, align 8
  %16 = tail call noundef i64 @_ZNK4llvm15SmallVectorBaseIjE4sizeEv(ptr noundef nonnull align 8 dereferenceable(16) %4) #19
  %17 = getelementptr inbounds %"struct.llvm::DataLayout::PointerSpec", ptr %15, i64 %16
  %.not6.i = icmp eq ptr %.0.lcssa.i.i.i.i, %17
  br i1 %.not6.i, label %21, label %18

18:                                               ; preds = %_ZN4llvm11lower_boundIRKNS_11SmallVectorINS_10DataLayout11PointerSpecELj8EEERjN12_GLOBAL__N_120LessPointerAddrSpaceEEEDaOT_OT0_T1_.exit.i
  %19 = load i32, ptr %.0.lcssa.i.i.i.i, align 4
  %20 = icmp eq i32 %19, %1
  br i1 %20, label %_ZNK4llvm10DataLayout14getPointerSpecEj.exit, label %21

21:                                               ; preds = %18, %_ZN4llvm11lower_boundIRKNS_11SmallVectorINS_10DataLayout11PointerSpecELj8EEERjN12_GLOBAL__N_120LessPointerAddrSpaceEEEDaOT_OT0_T1_.exit.i, %2
  %22 = getelementptr inbounds nuw i8, ptr %0, i64 272
  %23 = load ptr, ptr %22, align 8
  br label %_ZNK4llvm10DataLayout14getPointerSpecEj.exit

_ZNK4llvm10DataLayout14getPointerSpecEj.exit:     ; preds = %18, %21
  %.0.i = phi ptr [ %23, %21 ], [ %.0.lcssa.i.i.i.i, %18 ]
  %24 = getelementptr inbounds nuw i8, ptr %.0.i, i64 9
  %.sroa.0.0.copyload = load i8, ptr %24, align 1
  ret i8 %.sroa.0.0.copyload
}